target datalayout = "e-m:e-p270:32:32-p271:32:32-p272:64:64-i64:64-i128:128-f80:128-n8:16:32:64-S128"
target triple = "x86_64-pc-linux-gnu"

%"class.vas::ot::Tracklet" = type { ptr, i32, i32, i32, i32, i32, float, float, float, i32, %"class.std::deque", %"class.std::deque", %"class.cv::Rect_", %"class.std::vector" }
%"class.std::deque" = type { %"class.std::_Deque_base" }
%"class.std::_Deque_base" = type { %"struct.std::_Deque_base<cv::Rect_<float>, std::allocator<cv::Rect_<float>>>::_Deque_impl" }
%"struct.std::_Deque_base<cv::Rect_<float>, std::allocator<cv::Rect_<float>>>::_Deque_impl" = type { %"struct.std::_Deque_base<cv::Rect_<float>, std::allocator<cv::Rect_<float>>>::_Deque_impl_data" }
%"struct.std::_Deque_base<cv::Rect_<float>, std::allocator<cv::Rect_<float>>>::_Deque_impl_data" = type { ptr, i64, %"struct.std::_Deque_iterator", %"struct.std::_Deque_iterator" }
%"struct.std::_Deque_iterator" = type { ptr, ptr, ptr, ptr }
%"class.cv::Rect_" = type { float, float, float, float }
%"class.std::vector" = type { %"struct.std::_Vector_base" }
%"struct.std::_Vector_base" = type { %"struct.std::_Vector_base<std::__cxx11::basic_string<char>, std::allocator<std::__cxx11::basic_string<char>>>::_Vector_impl" }
%"struct.std::_Vector_base<std::__cxx11::basic_string<char>, std::allocator<std::__cxx11::basic_string<char>>>::_Vector_impl" = type { %"struct.std::_Vector_base<std::__cxx11::basic_string<char>, std::allocator<std::__cxx11::basic_string<char>>>::_Vector_impl_data" }
%"struct.std::_Vector_base<std::__cxx11::basic_string<char>, std::allocator<std::__cxx11::basic_string<char>>>::_Vector_impl_data" = type { ptr, ptr, ptr }

; Function Attrs: mustprogress nounwind uwtable
define linkonce_odr hidden void @_ZNSt15__new_allocatorIN2cv5Rect_IfEEE9constructIS2_JRKS2_EEEvPT_DpOT0_(ptr noundef nonnull align 1 dereferenceable(1) %0, ptr noundef %1, ptr noundef nonnull align 4 dereferenceable(16) %2) #2 comdat align 2 {
  %4 = alloca ptr, align 8
  %5 = alloca ptr, align 8
  %6 = alloca ptr, align 8
  store ptr %0, ptr %4, align 8, !tbaa !95
  store ptr %1, ptr %5, align 8, !tbaa !40
  store ptr %2, ptr %6, align 8, !tbaa !40
  %7 = load ptr, ptr %5, align 8, !tbaa !40
  %8 = load ptr, ptr %6, align 8, !tbaa !40
  call void @llvm.memcpy.p0.p0.i64(ptr align 4 %7, ptr align 4 %8, i64 16, i1 false), !tbaa.struct !51
  ret void
}

; Function Attrs: mustprogress nounwind uwtable
define linkonce_odr hidden void @_ZNSt16allocator_traitsISaIN2cv5Rect_IfEEEE9constructIS2_JRKS2_EEEvRS3_PT_DpOT0_(ptr noundef nonnull align 1 dereferenceable(1) %0, ptr noundef %1, ptr noundef nonnull align 4 dereferenceable(16) %2) #2 comdat align 2 {
  %4 = alloca ptr, align 8
  %5 = alloca ptr, align 8
  %6 = alloca ptr, align 8
  store ptr %0, ptr %4, align 8, !tbaa !97
  store ptr %1, ptr %5, align 8, !tbaa !40
  store ptr %2, ptr %6, align 8, !tbaa !40
  %7 = load ptr, ptr %4, align 8, !tbaa !97
  %8 = load ptr, ptr %5, align 8, !tbaa !40
  %9 = load ptr, ptr %6, align 8, !tbaa !40
  call void @_ZNSt15__new_allocatorIN2cv5Rect_IfEEE9constructIS2_JRKS2_EEEvPT_DpOT0_(ptr noundef nonnull align 1 dereferenceable(1) %7, ptr noundef %8, ptr noundef nonnull align 4 dereferenceable(16) %9) #16
  ret void
}

; Function Attrs: mustprogress uwtable
define linkonce_odr hidden void @_ZNSt5dequeIN2cv5Rect_IfEESaIS2_EE9push_backERKS2_(ptr noundef nonnull align 8 dereferenceable(80) %0, ptr noundef nonnull align 4 dereferenceable(16) %1) #0 comdat align 2 {
  %3 = alloca ptr, align 8
  %4 = alloca ptr, align 8
  store ptr %0, ptr %3, align 8, !tbaa !38
  store ptr %1, ptr %4, align 8, !tbaa !40
  %5 = load ptr, ptr %3, align 8
  %6 = getelementptr inbounds nuw %"class.std::_Deque_base", ptr %5, i32 0, i32 0
  %7 = getelementptr inbounds nuw %"struct.std::_Deque_base<cv::Rect_<float>, std::allocator<cv::Rect_<float>>>::_Deque_impl_data", ptr %6, i32 0, i32 3
  %8 = getelementptr inbounds nuw %"struct.std::_Deque_iterator", ptr %7, i32 0, i32 0
  %9 = load ptr, ptr %8, align 8, !tbaa !49
  %10 = getelementptr inbounds nuw %"class.std::_Deque_base", ptr %5, i32 0, i32 0
  %11 = getelementptr inbounds nuw %"struct.std::_Deque_base<cv::Rect_<float>, std::allocator<cv::Rect_<float>>>::_Deque_impl_data", ptr %10, i32 0, i32 3
  %12 = getelementptr inbounds nuw %"struct.std::_Deque_iterator", ptr %11, i32 0, i32 2
  %13 = load ptr, ptr %12, align 8, !tbaa !50
  %14 = getelementptr inbounds %"class.cv::Rect_", ptr %13, i64 -1
  %15 = icmp ne ptr %9, %14
  br i1 %15, label %16, label %28

16:                                               ; preds = %2
  %17 = getelementptr inbounds nuw %"class.std::_Deque_base", ptr %5, i32 0, i32 0
  %18 = getelementptr inbounds nuw %"class.std::_Deque_base", ptr %5, i32 0, i32 0
  %19 = getelementptr inbounds nuw %"struct.std::_Deque_base<cv::Rect_<float>, std::allocator<cv::Rect_<float>>>::_Deque_impl_data", ptr %18, i32 0, i32 3
  %20 = getelementptr inbounds nuw %"struct.std::_Deque_iterator", ptr %19, i32 0, i32 0
  %21 = load ptr, ptr %20, align 8, !tbaa !49
  %22 = load ptr, ptr %4, align 8, !tbaa !40
  call void @_ZNSt16allocator_traitsISaIN2cv5Rect_IfEEEE9constructIS2_JRKS2_EEEvRS3_PT_DpOT0_(ptr noundef nonnull align 1 dereferenceable(1) %17, ptr noundef %21, ptr noundef nonnull align 4 dereferenceable(16) %22) #16
  %23 = getelementptr inbounds nuw %"class.std::_Deque_base", ptr %5, i32 0, i32 0
  %24 = getelementptr inbounds nuw %"struct.std::_Deque_base<cv::Rect_<float>, std::allocator<cv::Rect_<float>>>::_Deque_impl_data", ptr %23, i32 0, i32 3
  %25 = getelementptr inbounds nuw %"struct.std::_Deque_iterator", ptr %24, i32 0, i32 0
  %26 = load ptr, ptr %25, align 8, !tbaa !49
  %27 = getelementptr inbounds nuw %"class.cv::Rect_", ptr %26, i32 1
  store ptr %27, ptr %25, align 8, !tbaa !49
  br label %30

28:                                               ; preds = %2
  %29 = load ptr, ptr %4, align 8, !tbaa !40
  call void @_ZNSt5dequeIN2cv5Rect_IfEESaIS2_EE16_M_push_back_auxIJRKS2_EEEvDpOT_(ptr noundef nonnull align 8 dereferenceable(80) %5, ptr noundef nonnull align 4 dereferenceable(16) %29)
  br label %30

30:                                               ; preds = %28, %16
  ret void
}

; Function Attrs: mustprogress uwtable
define hidden void @_ZN3vas2ot8Tracklet14InitTrajectoryERKN2cv5Rect_IfEE(ptr noundef nonnull align 8 dereferenceable(248) %0, ptr noundef nonnull align 4 dereferenceable(16) %1) #0 align 2 {
  %3 = alloca ptr, align 8
  %4 = alloca ptr, align 8
  store ptr %0, ptr %3, align 8, !tbaa !3
  store ptr %1, ptr %4, align 8, !tbaa !40
  %5 = load ptr, ptr %3, align 8
  %6 = getelementptr inbounds nuw %"class.vas::ot::Tracklet", ptr %5, i32 0, i32 10
  %7 = load ptr, ptr %4, align 8, !tbaa !40
  call void @_ZNSt5dequeIN2cv5Rect_IfEESaIS2_EE9push_backERKS2_(ptr noundef nonnull align 8 dereferenceable(80) %6, ptr noundef nonnull align 4 dereferenceable(16) %7)
  %8 = getelementptr inbounds nuw %"class.vas::ot::Tracklet", ptr %5, i32 0, i32 11
  %9 = load ptr, ptr %4, align 8, !tbaa !40
  call void @_ZNSt5dequeIN2cv5Rect_IfEESaIS2_EE9push_backERKS2_(ptr noundef nonnull align 8 dereferenceable(80) %8, ptr noundef nonnull align 4 dereferenceable(16) %9)
  ret void
}