; Function Attrs: mustprogress uwtable
define hidden void @_ZN3vas2ot8Tracklet14InitTrajectoryERKN2cv5Rect_IfEE(ptr noundef nonnull align 8 dereferenceable(248) %0, ptr noundef nonnull align 4 dereferenceable(16) %1) local_unnamed_addr #0 align 2 {
  %3 = getelementptr inbounds nuw i8, ptr %0, i64 96
  %4 = load ptr, ptr %3, align 8, !tbaa !56
  %5 = getelementptr inbounds nuw i8, ptr %0, i64 112
  %6 = load ptr, ptr %5, align 8, !tbaa !57
  %7 = getelementptr inbounds i8, ptr %6, i64 -16
  %.not.i = icmp eq ptr %4, %7
  br i1 %.not.i, label %11, label %8

8:                                                ; preds = %2
  tail call void @llvm.memcpy.p0.p0.i64(ptr noundef nonnull align 4 dereferenceable(16) %4, ptr noundef nonnull align 4 dereferenceable(16) %1, i64 16, i1 false), !tbaa.struct !58
  %9 = load ptr, ptr %3, align 8, !tbaa !56
  %10 = getelementptr inbounds nuw i8, ptr %9, i64 16
  store ptr %10, ptr %3, align 8, !tbaa !56
  br label %_ZNSt5dequeIN2cv5Rect_IfEESaIS2_EE9push_backERKS2_.exit

11:                                               ; preds = %2
  %12 = getelementptr inbounds nuw i8, ptr %0, i64 48
  tail call void @_ZNSt5dequeIN2cv5Rect_IfEESaIS2_EE16_M_push_back_auxIJRKS2_EEEvDpOT_(ptr noundef nonnull align 8 dereferenceable(80) %12, ptr noundef nonnull align 4 dereferenceable(16) %1)
  br label %_ZNSt5dequeIN2cv5Rect_IfEESaIS2_EE9push_backERKS2_.exit

_ZNSt5dequeIN2cv5Rect_IfEESaIS2_EE9push_backERKS2_.exit: ; preds = %8, %11
  %13 = getelementptr inbounds nuw i8, ptr %0, i64 176
  %14 = load ptr, ptr %13, align 8, !tbaa !56
  %15 = getelementptr inbounds nuw i8, ptr %0, i64 192
  %16 = load ptr, ptr %15, align 8, !tbaa !57
  %17 = getelementptr inbounds i8, ptr %16, i64 -16
  %.not.i3 = icmp eq ptr %14, %17
  br i1 %.not.i3, label %21, label %18

18:                                               ; preds = %_ZNSt5dequeIN2cv5Rect_IfEESaIS2_EE9push_backERKS2_.exit
  tail call void @llvm.memcpy.p0.p0.i64(ptr noundef nonnull align 4 dereferenceable(16) %14, ptr noundef nonnull align 4 dereferenceable(16) %1, i64 16, i1 false), !tbaa.struct !58
  %19 = load ptr, ptr %13, align 8, !tbaa !56
  %20 = getelementptr inbounds nuw i8, ptr %19, i64 16
  store ptr %20, ptr %13, align 8, !tbaa !56
  br label %_ZNSt5dequeIN2cv5Rect_IfEESaIS2_EE9push_backERKS2_.exit4

21:                                               ; preds = %_ZNSt5dequeIN2cv5Rect_IfEESaIS2_EE9push_backERKS2_.exit
  %22 = getelementptr inbounds nuw i8, ptr %0, i64 128
  tail call void @_ZNSt5dequeIN2cv5Rect_IfEESaIS2_EE16_M_push_back_auxIJRKS2_EEEvDpOT_(ptr noundef nonnull align 8 dereferenceable(80) %22, ptr noundef nonnull align 4 dereferenceable(16) %1)
  br label %_ZNSt5dequeIN2cv5Rect_IfEESaIS2_EE9push_backERKS2_.exit4

_ZNSt5dequeIN2cv5Rect_IfEESaIS2_EE9push_backERKS2_.exit4: ; preds = %18, %21
  ret void
}